-----BEGIN CERTIFICATE-----
MIIFvDCCA6SgAwIBAgIJAME8j6BnFbH9MA0GCSqGSIb3DQEBCwUAMGsxCzAJBgNV
BAYTAkNOMQswCQYDVQQIDAJTQzELMAkGA1UEBwwCQ0QxEDAOBgNVBAoMB0VDIFdp
c2UxHjAcBgNVBAsMFUNlcnRpZmljYXRlIEF1dGhvcml0eTEQMA4GA1UEAwwHUm9v
dCBDQTAeFw0xNjA2MDMwMjQ3MzZaFw0zNzAzMjUwMjQ3MzZaMGsxCzAJBgNVBAYT
AkNOMQswCQYDVQQIDAJTQzELMAkGA1UEBwwCQ0QxEDAOBgNVBAoMB0VDIFdpc2Ux
HjAcBgNVBAsMFUNlcnRpZmljYXRlIEF1dGhvcml0eTEQMA4GA1UEAwwHUm9vdCBD
QTCCAiIwDQYJKoZIhvcNAQEBBQADggIPADCCAgoCggIBAORtuGYK2ilnFTk73tq1
2FRCgHxWAQViw3a0wj6hRsjA7cQ/N9HirZ1npT5pCi9CzGTpel8BEAjy8ZtsRlJf
XPfc8D9OyRXWO3tQBrPT0ZUdLHrgTmwRlc9dXvsVLRhVFzuw78ytjagr0DtnX8WM
En+AUTZSeZsCw2VUUXvnA2O/ND4AHJyF/WB2JFa884vbGQG24oQaATR5mm+lShbN
+SRtm9aBGTcWepmFpLSL7SCB6lma2bDcZ8v5LsD8OdEyHh4oCQYsNa7niaQNAF6k
w9VFrUggKHOYcekwJg4maavPIqJFYuGP00+rrHznvJt1PFMGs6pCB16lSrmNNLJM
CMhsAY8MrG1w0dmM/gpir400giRlZKLA2hZOaB3US3cspxM8Mt4k1Aknid4PoHYt
jybBxtwnkYJY/asHJd4eKprATURdKeDIkahDsYvjmYXTmrSbMKVxbfLgvznA0KXG
s9kenYS54NtfLldtlxbrIYUg0RmZiaox0O+2sMjFv5SOv2CrBmssN6Y0VNScrD7T
H8nPekBxKO6cPz1XeIXQV6teP64z1bcWCbz74PTGvFAUo07tMZT3vhqrlaTRSl4A
ZbvF9x0lX4oZgav98bIb34QR2EFtiwBlymZ0/osfW2B9XVVJOr6oanr6Z8yPDo+o
+hRmdKjeK8cthU52j0MpYEqHAgMBAAGjYzBhMB0GA1UdDgQWBBSFvhXj6qoRJvzH
P4klOQUzsdSPVTAfBgNVHSMEGDAWgBSFvhXj6qoRJvzHP4klOQUzsdSPVTAPBgNV
HRMBAf8EBTADAQH/MA4GA1UdDwEB/wQEAwIBhjANBgkqhkiG9w0BAQsFAAOCAgEA
yOKfM+tp6d0iIFGHcev7AN97gbecdtXKSv8UOtZKs6Vu1vWPeuYMUoeva6LcoydQ
EmF/ldmyvaEBwgxFcqL2s76wfq22TLRrmPKqWzJYN+lq28zj0eDBBcQpSz5YrOEB
YLtKuJxmnvq7N1oSTyZaNryzuD7xhZB0wvXXy3uG/dQOjgFJ3nty9gcgPbdRMITX
ixx/F6JiXjVTNJy83i3tU3sYLAwOEUEzjh7jeCa5guFUrWC0+0QIc6g1rs6iAz2W
0EJ04PNNwdTob7ASYavda88DaDIMAb6IFQJjYPzcxCqh8a6ckuTjrCRFELGaiPwI
SnXRrAiI3aSeo+Qt9OlePEC07ovfXHq04oo6xdqvxEwhwvvdZ3P/ag3F0EejFSV+
v/udwCW0EVKj4e2N9UrxY0IDyqzeL7YeVt/GpKSR6bIwx1U49BxJZFraaFiqF8Of
TVCAhnAi5TA87nsIIaNP+ztugJ2Vt4NMOFK7y9/A3xXCqTs6F0GKV/UyL7WrGQhw
LePhC/dlcEMrLfYwMePyAfSZyz5mqrLXufr0kZ6dhPlpyrfILYGtm7kxgr9PwVop
pQIbku2grbb5tC2FngGmaFwqZHeAdYHn+gRvOlpL24ISeuOacWbWRDHoY1PVXygv
LngPv8KtvQZU6QHC5/8wnHblHFscNVTBbMascOfoKlU=
-----END CERTIFICATE-----
-----BEGIN CERTIFICATE-----
MIIFszCCA5ugAwIBAgICEAIwDQYJKoZIhvcNAQELBQAwazELMAkGA1UEBhMCQ04x
CzAJBgNVBAgMAlNDMQswCQYDVQQHDAJDRDEQMA4GA1UECgwHRUMgV2lzZTEeMBwG
A1UECwwVQ2VydGlmaWNhdGUgQXV0aG9yaXR5MRAwDgYDVQQDDAdSb290IENBMB4X
DTE2MDYwMzAyNTE1MloXDTI2MDYwMTAyNTE1MlowZjELMAkGA1UEBhMCQ04xCzAJ
BgNVBAgMAlNDMRAwDgYDVQQKDAdFQyBXaXNlMR4wHAYDVQQLDBVDZXJ0aWZpY2F0
ZSBBdXRob3JpdHkxGDAWBgNVBAMMD0ludGVybWVkaWF0ZSBDQTCCAiIwDQYJKoZI
hvcNAQEBBQADggIPADCCAgoCggIBANrCNcS9pD2JokNJqa3lvumHO+esl/8XY+gZ
9VKkNgONMcpzcnIQbMxEDJ4vHyQ+YevUgl3U0WqibibYpbP6zYJVXZIa5NIGhxt/
2RGI54fteXN+5+HQlxgSk1xIQI27+zsLCHiuOLS1M2+mtmXep7fPLkiZ1X1nvFMI
vwgUeQpBNPTMUn68iikceFgCmWgs5qUns0VHjIWwiNk2+LCn3tiNCAVHKxBEliKW
NKz9CNOKC/zxNqlGyhHeOFUvYr+6aLXlUoHFGxu/uz3hpIElO0nn/k2817XPwdTL
QJ7fnyojrMhwd0lqxnDbQIMuq+I5WJYhI0cK2XyWAMjDjt+9nbCD6i/BIZ9BBwdd
60i436z2PTPp8NHXe1YjQY6fH+b3+Y9/qiT2O5vHkh6CCWOXI4cwpXqP38js0yWk
YlOq3PVMdgp6ENW9HaYK4BWnJyAZprjsGpCR0J+9RDfpVMWx5DXNWYl6+cks7/+g
qnZRv06EiWNHQFmnGg/6yA6AI0Gz9x/kIE1REY7dOzRZFyjkNuce3KzQH5M+0aUk
TuMIv4gArzvZdYV7F7wcnp0bPYwbXHF3ceXkuQ3we3FWZITmsGSMMnOwfyjzG3MG
cXsFgi5SRGvI800OWX3EKjgoub1B74KaGpyet4dT5MMlhf6lrvhOxf08j8+AZa+y
SkQPIrN9AgMBAAGjZjBkMB0GA1UdDgQWBBSdoW3aGlzIrO6QbhYnWwciAUAcfzAf
BgNVHSMEGDAWgBSFvhXj6qoRJvzHP4klOQUzsdSPVTASBgNVHRMBAf8ECDAGAQH/
AgEAMA4GA1UdDwEB/wQEAwIBhjANBgkqhkiG9w0BAQsFAAOCAgEAo1iGr+mWnyoT
5K3fsExWZ2Bx1Kc+2nrhpn8VVKM3uHw336PLQ2E3UQtFF68bSedQJ8vKYaTTNyH7
4AV1oVQVSiFgQ4kK7xABpXxEEWq38Fbljg4X1CJM8ZRUnWkPjJfbkGk/E6zWCdN0
DRPMCL5WcWarWXUN2x5stigoYbi5wnW0ivCm8e/c6yLmU4o7lmR3vtsy6IFW2e7q
gWVrljQP22W6UcTdXzaKaLmMdVMHPogAG0NSAsdhZWfougCjr6UvCJSoZJqhjrRT
s+3k1N80ivBUT9f74kp5k18nMgTSaf7He+VqRw4wrchfQG7QQGN/NZxEQKFSUbvn
I3u84xk2oIjWJ09n+AZLkozHWhGMyF3dQJqThXF3JH0YqcZMJuj7REdV7yOIwHS7
vwSQotV26FEeUyS0tAxTOpyOiGeVLSvxo8cK8gU41efIAeKQ3Xtl4uyf1cSXSHad
RqDWyLPxH5zA/D+m4yodDf/kkq+woxKsB8qqwPtdUvIY2O1GSi+ILf0uUD73rMJE
oku47VDkmpxIriaI6pR6YfIZ0Tu6b/zfKJS/hgBdkCZ8uyZcH0Zia7IYTxV4Fhp2
5pBC9AeFZoUtfmHDkTYZyI9aFMHLUXdeAs07VThSXwhbmMFcmguTHy9YhFZc8YSy
ZFh0022h6VU65zkKPUuov3MQ/CkFUO8=
-----END CERTIFICATE-----
Certificate:
    Data:
        Version: 3 (0x2)
        Serial Number: 4106 (0x100a)
        Signature Algorithm: sha256WithRSAEncryption
        Issuer: C=CN, ST=SC, O=EC Wise, OU=Certificate Authority, CN=Intermediate CA
        Validity
            Not Before: Aug 17 22:35:03 2016 GMT
            Not After : Aug 27 22:35:03 2017 GMT
        Subject: C=CN, ST=SC, L=CD, O=EC Wise, OU=SAS, CN=Code Signer/emailAddress=codesigner@ecwise.com
        Subject Public Key Info:
            Public Key Algorithm: rsaEncryption
            RSA Public Key: (2048 bit)
                Modulus (2048 bit):
                    00:c1:d1:f3:b0:a8:a5:94:7a:dd:f5:63:c9:6d:ca:
                    20:93:68:b0:8b:ed:1d:b7:87:c7:bb:25:3b:b0:ca:
                    a0:21:cc:f9:91:4e:a3:84:97:4e:81:33:86:a1:17:
                    e0:73:da:e1:f7:d5:20:db:bf:1a:54:ab:c8:25:81:
                    e4:f2:41:a7:c0:4a:33:87:ab:87:02:70:65:4b:13:
                    bc:ae:5a:81:27:3e:03:c2:dc:63:a0:d6:73:d1:f1:
                    48:76:5a:bb:42:57:02:48:05:ad:42:81:82:1c:69:
                    bf:06:3d:2b:b9:a5:37:29:b2:b5:d7:65:14:46:68:
                    a0:01:24:ba:c1:74:35:ed:45:3e:58:1d:96:60:c5:
                    cc:76:63:f1:a8:a5:48:f3:52:46:9d:50:43:66:fd:
                    71:0f:08:e9:92:18:ad:a5:bc:a7:58:63:86:b2:bd:
                    48:e2:37:4a:9f:14:3f:4e:a6:61:da:2f:42:69:20:
                    58:36:68:3d:4f:3a:b0:73:63:36:33:9e:14:92:ce:
                    87:e4:ba:cd:4f:6b:d8:f8:c7:2d:22:07:11:bc:0a:
                    66:13:3c:90:af:3b:e5:0e:60:32:34:9c:d8:cc:f2:
                    92:b7:1d:b8:56:9c:f8:21:3b:e8:cc:ee:b3:1a:78:
                    63:98:04:c2:ac:c3:70:ae:35:a8:e1:25:6c:4d:2f:
                    2c:39
                Exponent: 65537 (0x10001)
        X509v3 extensions:
            X509v3 Basic Constraints: 
                CA:FALSE
            X509v3 Subject Key Identifier: 
                74:70:71:8C:67:2E:E4:7E:DC:E1:94:59:40:45:C1:37:9B:54:78:AB
            X509v3 Authority Key Identifier: 
                keyid:9D:A1:6D:DA:1A:5C:C8:AC:EE:90:6E:16:27:5B:07:22:01:40:1C:7F

            X509v3 Key Usage: critical
                Digital Signature, Non Repudiation, Key Encipherment
            X509v3 Extended Key Usage: 
                Code Signing
    Signature Algorithm: sha256WithRSAEncryption
        36:6b:62:f6:bc:69:c9:71:64:4f:28:6f:00:f1:5d:81:b6:f0:
        0a:2c:8c:eb:0f:c9:24:b5:b9:24:27:6a:ee:77:25:3a:9e:70:
        80:05:58:f3:45:e4:bd:ba:2e:67:fa:82:2b:d5:fd:b2:52:ae:
        cc:de:b7:71:b1:c0:ba:a2:c2:f3:f7:7b:e6:f7:d2:d7:ad:1e:
        6d:9c:6e:8f:dd:95:2d:2f:ea:cb:5b:d5:a2:24:32:ae:e5:ac:
        95:64:40:a9:99:2e:25:7e:54:85:ba:cf:18:1a:77:f0:7a:5f:
        c1:9b:61:ac:56:fb:11:11:18:c0:a2:ab:d3:7a:05:d5:e5:6a:
        08:f1:da:ff:6d:b5:1e:cb:f0:a6:72:ba:7b:26:fd:40:c5:42:
        c7:b3:93:40:c5:a2:d8:cf:c6:9e:f6:50:0d:a0:70:aa:55:89:
        21:a1:89:1d:cc:32:36:c0:5f:68:61:86:3b:bf:4a:1f:29:4a:
        02:4f:d2:1a:9a:13:99:a5:00:bd:71:bb:2f:9b:50:c1:25:14:
        99:4b:0d:ef:c1:9b:41:3f:8e:2a:ba:cc:76:b3:35:ea:46:42:
        8d:a3:75:65:10:b8:b5:c7:76:93:98:97:dd:ea:e6:c6:e8:bc:
        b5:e9:b9:e0:10:32:61:e5:d5:87:e4:69:9a:00:fa:d5:5c:e2:
        3c:a2:3c:49:f4:3e:84:dc:73:3f:77:c6:0b:55:28:23:fd:1c:
        2f:6c:25:26:46:34:e2:14:1c:00:e1:d6:c4:dc:28:b5:fe:2f:
        9d:fe:ec:5f:03:cb:65:17:4b:1b:37:26:5b:02:f2:28:99:d5:
        57:66:5c:61:b8:59:1b:d2:d3:3a:b7:4e:6a:26:59:1b:3d:b6:
        23:94:59:00:87:20:2b:b9:60:ca:07:74:23:ab:9d:85:70:13:
        1d:46:63:c5:31:3d:f1:62:d8:3f:29:b9:22:b2:a1:12:b4:eb:
        ed:40:67:4f:65:67:5e:a2:ad:55:87:cd:6f:95:6f:d0:cb:6b:
        3d:35:6d:98:ee:91:3b:02:72:1f:4a:25:32:30:26:9e:ee:3b:
        d4:7c:73:05:27:30:c1:6f:10:c2:f7:9f:4c:96:97:73:8a:f7:
        a6:2a:3e:7d:96:9e:94:86:20:8b:60:77:15:57:a1:08:df:2b:
        25:09:32:20:23:00:f1:57:79:f6:84:de:90:14:90:d0:37:f5:
        0e:8f:de:b2:fe:82:fd:ef:b3:75:e8:ed:e8:2b:ae:ae:cd:70:
        70:a5:e8:49:23:1f:e1:3f:71:12:66:93:74:c8:6d:41:fa:93:
        09:77:1a:27:eb:da:e9:1f:be:cb:af:02:57:58:f6:b2:35:6d:
        7b:c8:db:46:28:26:e4:ff
-----BEGIN CERTIFICATE-----
MIIE2DCCAsCgAwIBAgICEAowDQYJKoZIhvcNAQELBQAwZjELMAkGA1UEBhMCQ04x
CzAJBgNVBAgMAlNDMRAwDgYDVQQKDAdFQyBXaXNlMR4wHAYDVQQLDBVDZXJ0aWZp
Y2F0ZSBBdXRob3JpdHkxGDAWBgNVBAMMD0ludGVybWVkaWF0ZSBDQTAeFw0xNjA4
MTcyMjM1MDNaFw0xNzA4MjcyMjM1MDNaMIGDMQswCQYDVQQGEwJDTjELMAkGA1UE
CAwCU0MxCzAJBgNVBAcMAkNEMRAwDgYDVQQKDAdFQyBXaXNlMQwwCgYDVQQLDANT
QVMxFDASBgNVBAMMC0NvZGUgU2lnbmVyMSQwIgYJKoZIhvcNAQkBFhVjb2Rlc2ln
bmVyQGVjd2lzZS5jb20wggEiMA0GCSqGSIb3DQEBAQUAA4IBDwAwggEKAoIBAQDB
0fOwqKWUet31Y8ltyiCTaLCL7R23h8e7JTuwyqAhzPmRTqOEl06BM4ahF+Bz2uH3
1SDbvxpUq8glgeTyQafASjOHq4cCcGVLE7yuWoEnPgPC3GOg1nPR8Uh2WrtCVwJI
Ba1CgYIcab8GPSu5pTcpsrXXZRRGaKABJLrBdDXtRT5YHZZgxcx2Y/GopUjzUkad
UENm/XEPCOmSGK2lvKdYY4ayvUjiN0qfFD9OpmHaL0JpIFg2aD1POrBzYzYznhSS
zofkus1Pa9j4xy0iBxG8CmYTPJCvO+UOYDI0nNjM8pK3HbhWnPghO+jM7rMaeGOY
BMKsw3CuNajhJWxNLyw5AgMBAAGjcjBwMAkGA1UdEwQCMAAwHQYDVR0OBBYEFHRw
cYxnLuR+3OGUWUBFwTebVHirMB8GA1UdIwQYMBaAFJ2hbdoaXMis7pBuFidbByIB
QBx/MA4GA1UdDwEB/wQEAwIF4DATBgNVHSUEDDAKBggrBgEFBQcDAzANBgkqhkiG
9w0BAQsFAAOCAgEANmti9rxpyXFkTyhvAPFdgbbwCiyM6w/JJLW5JCdq7nclOp5w
gAVY80XkvbouZ/qCK9X9slKuzN63cbHAuqLC8/d75vfS160ebZxuj92VLS/qy1vV
oiQyruWslWRAqZkuJX5UhbrPGBp38HpfwZthrFb7EREYwKKr03oF1eVqCPHa/221
HsvwpnK6eyb9QMVCx7OTQMWi2M/GnvZQDaBwqlWJIaGJHcwyNsBfaGGGO79KHylK
Ak/SGpoTmaUAvXG7L5tQwSUUmUsN78GbQT+OKrrMdrM16kZCjaN1ZRC4tcd2k5iX
3ermxui8tem54BAyYeXVh+RpmgD61VziPKI8SfQ+hNxzP3fGC1UoI/0cL2wlJkY0
4hQcAOHWxNwotf4vnf7sXwPLZRdLGzcmWwLyKJnVV2ZcYbhZG9LTOrdOaiZZGz22
I5RZAIcgK7lgygd0I6udhXATHUZjxTE98WLYPym5IrKhErTr7UBnT2VnXqKtVYfN
b5Vv0MtrPTVtmO6ROwJyH0olMjAmnu471HxzBScwwW8QwvefTJaXc4r3pio+fZae
lIYgi2B3FVehCN8rJQkyICMA8Vd59oTekBSQ0Df1Do/esv6C/e+zdejt6Cuurs1w
cKXoSSMf4T9xEmaTdMhtQfqTCXcaJ+va6R++y68CV1j2sjVte8jbRigm5P8=
-----END CERTIFICATE-----
