Certificate:
    Data:
        Version: 3 (0x2)
        Serial Number: 4105 (0x1009)
        Signature Algorithm: sha256WithRSAEncryption
        Issuer: C=CN, ST=SC, O=EC Wise, OU=Certificate Authority, CN=Intermediate CA
        Validity
            Not Before: Aug 17 06:27:21 2016 GMT
            Not After : Aug 27 06:27:21 2017 GMT
        Subject: C=CN, ST=SC, L=CD, O=EC Wise, OU=SAS, CN=Code Signer/emailAddress=codesigner@ecwise.com
        Subject Public Key Info:
            Public Key Algorithm: rsaEncryption
            RSA Public Key: (2048 bit)
                Modulus (2048 bit):
                    00:c1:d1:f3:b0:a8:a5:94:7a:dd:f5:63:c9:6d:ca:
                    20:93:68:b0:8b:ed:1d:b7:87:c7:bb:25:3b:b0:ca:
                    a0:21:cc:f9:91:4e:a3:84:97:4e:81:33:86:a1:17:
                    e0:73:da:e1:f7:d5:20:db:bf:1a:54:ab:c8:25:81:
                    e4:f2:41:a7:c0:4a:33:87:ab:87:02:70:65:4b:13:
                    bc:ae:5a:81:27:3e:03:c2:dc:63:a0:d6:73:d1:f1:
                    48:76:5a:bb:42:57:02:48:05:ad:42:81:82:1c:69:
                    bf:06:3d:2b:b9:a5:37:29:b2:b5:d7:65:14:46:68:
                    a0:01:24:ba:c1:74:35:ed:45:3e:58:1d:96:60:c5:
                    cc:76:63:f1:a8:a5:48:f3:52:46:9d:50:43:66:fd:
                    71:0f:08:e9:92:18:ad:a5:bc:a7:58:63:86:b2:bd:
                    48:e2:37:4a:9f:14:3f:4e:a6:61:da:2f:42:69:20:
                    58:36:68:3d:4f:3a:b0:73:63:36:33:9e:14:92:ce:
                    87:e4:ba:cd:4f:6b:d8:f8:c7:2d:22:07:11:bc:0a:
                    66:13:3c:90:af:3b:e5:0e:60:32:34:9c:d8:cc:f2:
                    92:b7:1d:b8:56:9c:f8:21:3b:e8:cc:ee:b3:1a:78:
                    63:98:04:c2:ac:c3:70:ae:35:a8:e1:25:6c:4d:2f:
                    2c:39
                Exponent: 65537 (0x10001)
        X509v3 extensions:
            X509v3 Basic Constraints: 
                CA:FALSE
            Netscape Cert Type: 
                SSL Client, S/MIME
            Netscape Comment: 
                OpenSSL Generated Client Certificate
            X509v3 Subject Key Identifier: 
                74:70:71:8C:67:2E:E4:7E:DC:E1:94:59:40:45:C1:37:9B:54:78:AB
            X509v3 Authority Key Identifier: 
                keyid:9D:A1:6D:DA:1A:5C:C8:AC:EE:90:6E:16:27:5B:07:22:01:40:1C:7F

            X509v3 Key Usage: critical
                Digital Signature, Non Repudiation, Key Encipherment
            X509v3 Extended Key Usage: 
                TLS Web Client Authentication, E-mail Protection
    Signature Algorithm: sha256WithRSAEncryption
        5b:03:b4:6f:ca:b8:16:04:aa:37:7e:a0:e2:b0:dc:2f:8e:fd:
        63:88:51:d4:3e:ad:44:c6:c0:fc:31:01:11:e5:bc:78:f9:9a:
        bc:85:27:6a:24:67:a9:6a:3c:78:46:87:3b:4c:cc:76:54:76:
        80:f6:38:13:88:60:02:02:d4:25:25:76:ef:31:26:74:b6:d1:
        7d:b7:c6:ec:67:bd:4c:79:97:d0:6d:63:30:4f:a9:77:24:4d:
        21:7e:54:59:ac:d0:33:41:7e:53:b2:18:ee:63:51:0d:a8:dc:
        5f:fd:05:34:f7:b6:55:9c:24:97:67:56:b4:a5:c1:ad:0a:99:
        34:3e:6f:df:30:b9:87:5d:44:47:53:ee:02:2c:af:2b:5b:92:
        84:50:c8:50:af:b5:b7:f9:18:62:71:de:e7:04:a1:97:46:7f:
        bf:57:91:be:72:d9:7e:de:ff:f2:72:bb:1d:e2:ca:96:38:d4:
        04:b4:9f:7b:27:0f:6b:55:37:ca:f5:7d:85:39:a5:67:76:71:
        30:c7:af:c7:c0:3c:0e:c3:7a:d0:5d:ae:d6:04:e0:d4:1c:6f:
        93:a5:77:53:85:1d:4d:80:87:00:a4:f0:3e:e9:8e:13:b6:f3:
        32:86:1c:98:39:f0:84:c1:c0:8d:6b:98:32:ae:c2:87:bf:c8:
        4c:5d:a4:4e:00:82:ee:94:1f:11:02:a0:8c:69:da:e5:fa:fe:
        5b:a0:a3:8c:56:2d:52:ae:82:e8:ab:2f:43:ee:48:bb:e5:1d:
        4b:40:b3:f0:47:a9:c3:51:a8:93:b6:89:04:07:e9:c3:14:c9:
        fb:57:8f:c6:37:0e:30:12:06:73:7c:cc:c7:48:69:69:85:ed:
        da:3a:7f:90:7b:f7:a3:73:e9:f6:01:24:e7:2e:85:1d:bb:24:
        4d:bc:25:81:91:a0:a5:b1:9c:9c:b9:62:cd:26:39:f7:4b:38:
        df:49:d5:3e:a9:79:c0:d7:72:e5:e4:9f:54:02:2e:21:1c:fb:
        9e:29:7c:53:06:29:b8:6d:0b:b4:9f:0b:d0:83:66:0b:2b:02:
        60:c5:71:6e:55:5e:cf:3d:eb:ce:8b:4f:08:9a:9d:4c:47:1a:
        f2:05:75:42:22:63:0c:ba:62:dc:38:4e:56:ee:cc:ac:4a:64:
        90:ed:0a:11:85:8d:49:1a:dc:24:4d:fe:b3:64:a6:94:75:1b:
        ed:cd:8d:b6:15:32:2a:e8:d8:34:fd:72:15:df:6b:53:4e:86:
        87:5c:8c:b3:c4:6e:89:a4:04:2b:f4:d7:d7:09:f7:b5:20:25:
        03:57:74:d4:01:d9:12:50:f0:5a:de:e7:c3:b8:df:00:ae:ab:
        e4:bd:f4:8b:5b:8d:dd:4e
-----BEGIN CERTIFICATE-----
MIIFLDCCAxSgAwIBAgICEAkwDQYJKoZIhvcNAQELBQAwZjELMAkGA1UEBhMCQ04x
CzAJBgNVBAgMAlNDMRAwDgYDVQQKDAdFQyBXaXNlMR4wHAYDVQQLDBVDZXJ0aWZp
Y2F0ZSBBdXRob3JpdHkxGDAWBgNVBAMMD0ludGVybWVkaWF0ZSBDQTAeFw0xNjA4
MTcwNjI3MjFaFw0xNzA4MjcwNjI3MjFaMIGDMQswCQYDVQQGEwJDTjELMAkGA1UE
CAwCU0MxCzAJBgNVBAcMAkNEMRAwDgYDVQQKDAdFQyBXaXNlMQwwCgYDVQQLDANT
QVMxFDASBgNVBAMMC0NvZGUgU2lnbmVyMSQwIgYJKoZIhvcNAQkBFhVjb2Rlc2ln
bmVyQGVjd2lzZS5jb20wggEiMA0GCSqGSIb3DQEBAQUAA4IBDwAwggEKAoIBAQDB
0fOwqKWUet31Y8ltyiCTaLCL7R23h8e7JTuwyqAhzPmRTqOEl06BM4ahF+Bz2uH3
1SDbvxpUq8glgeTyQafASjOHq4cCcGVLE7yuWoEnPgPC3GOg1nPR8Uh2WrtCVwJI
Ba1CgYIcab8GPSu5pTcpsrXXZRRGaKABJLrBdDXtRT5YHZZgxcx2Y/GopUjzUkad
UENm/XEPCOmSGK2lvKdYY4ayvUjiN0qfFD9OpmHaL0JpIFg2aD1POrBzYzYznhSS
zofkus1Pa9j4xy0iBxG8CmYTPJCvO+UOYDI0nNjM8pK3HbhWnPghO+jM7rMaeGOY
BMKsw3CuNajhJWxNLyw5AgMBAAGjgcUwgcIwCQYDVR0TBAIwADARBglghkgBhvhC
AQEEBAMCBaAwMwYJYIZIAYb4QgENBCYWJE9wZW5TU0wgR2VuZXJhdGVkIENsaWVu
dCBDZXJ0aWZpY2F0ZTAdBgNVHQ4EFgQUdHBxjGcu5H7c4ZRZQEXBN5tUeKswHwYD
VR0jBBgwFoAUnaFt2hpcyKzukG4WJ1sHIgFAHH8wDgYDVR0PAQH/BAQDAgXgMB0G
A1UdJQQWMBQGCCsGAQUFBwMCBggrBgEFBQcDBDANBgkqhkiG9w0BAQsFAAOCAgEA
WwO0b8q4FgSqN36g4rDcL479Y4hR1D6tRMbA/DEBEeW8ePmavIUnaiRnqWo8eEaH
O0zMdlR2gPY4E4hgAgLUJSV27zEmdLbRfbfG7Ge9THmX0G1jME+pdyRNIX5UWazQ
M0F+U7IY7mNRDajcX/0FNPe2VZwkl2dWtKXBrQqZND5v3zC5h11ER1PuAiyvK1uS
hFDIUK+1t/kYYnHe5wShl0Z/v1eRvnLZft7/8nK7HeLKljjUBLSfeycPa1U3yvV9
hTmlZ3ZxMMevx8A8DsN60F2u1gTg1Bxvk6V3U4UdTYCHAKTwPumOE7bzMoYcmDnw
hMHAjWuYMq7Ch7/ITF2kTgCC7pQfEQKgjGna5fr+W6CjjFYtUq6C6KsvQ+5Iu+Ud
S0Cz8Eepw1Gok7aJBAfpwxTJ+1ePxjcOMBIGc3zMx0hpaYXt2jp/kHv3o3Pp9gEk
5y6FHbskTbwlgZGgpbGcnLlizSY590s430nVPql5wNdy5eSfVAIuIRz7nil8UwYp
uG0LtJ8L0INmCysCYMVxblVezz3rzotPCJqdTEca8gV1QiJjDLpi3DhOVu7MrEpk
kO0KEYWNSRrcJE3+s2SmlHUb7c2NthUyKujYNP1yFd9rU06Gh1yMs8RuiaQEK/TX
1wn3tSAlA1d01AHZElDwWt7nw7jfAK6r5L30i1uN3U4=
-----END CERTIFICATE-----
